Certificate:
    Data:
        Version: 3 (0x2)
        Serial Number:
            03:9a:a4:cd:b1:9b:14:21:85:bf:8f:76:2a:5f:7f:46
        Signature Algorithm: sha256WithRSAEncryption
        Issuer: C=TC, O=Third Country QTSP Company, CN=TC eTrust QC for eSignatures CA
        Validity
            Not Before: Jun  3 16:23:31 2020 GMT
            Not After : Jun  2 16:23:31 2025 GMT
        Subject: C=TC, ST=Midlands, O=Test organization, OU=TEST PKI, CN=John Doe
        Subject Public Key Info:
            Public Key Algorithm: rsaEncryption
                RSA Public-Key: (2048 bit)
                Modulus:
                    00:f5:11:cd:10:b0:4d:c9:28:a2:a2:8f:a4:09:73:
                    e4:5e:5b:f4:10:5d:74:db:58:34:12:a0:9d:fa:ab:
                    1e:12:b0:c2:7b:17:09:61:11:20:81:fb:18:20:88:
                    18:47:5e:d0:69:fc:03:65:b2:63:05:59:0c:df:95:
                    ca:91:38:68:ac:b0:bb:02:5b:71:bd:4a:f3:38:96:
                    a8:85:77:b8:f2:b5:7c:f4:a4:41:70:72:dd:f2:e7:
                    6c:88:3e:e8:08:e2:f1:42:3b:c6:8e:33:be:92:f4:
                    b0:9b:76:b6:42:89:e8:93:1e:4f:ed:d7:e2:27:06:
                    4c:34:15:42:53:dc:0a:d0:2d:fa:d6:05:b1:2f:d4:
                    8f:e0:e7:a9:11:b8:72:32:61:3d:f5:5a:9c:87:b9:
                    57:dd:8d:db:14:46:61:bf:65:02:a7:1d:65:89:23:
                    a5:94:24:00:4e:9c:53:11:e7:24:42:60:bd:13:b2:
                    e2:01:e4:6a:af:cf:43:cc:ba:38:29:a2:e4:b2:a1:
                    6e:20:e5:57:ab:0d:be:1e:f7:81:0c:31:f4:0c:ea:
                    2c:05:13:d6:41:58:7e:1e:3f:d6:61:6f:1d:78:96:
                    55:4f:61:4a:4a:23:77:c0:63:67:a3:ab:81:76:e8:
                    0f:46:69:6a:c7:a3:45:2f:75:1c:5e:a1:4f:89:9b:
                    f2:b1
                Exponent: 65537 (0x10001)
        X509v3 extensions:
            Authority Information Access: 
                CA Issuers - URI:http://nt-qwac.nowina.solutions/res/caqctsp/sub-ca_tc.crt

            X509v3 Authority Key Identifier: 
                keyid:12:D0:30:94:2A:EB:73:C9:DE:9D:51:1F:76:06:06:41:86:D9:E6:EC

            X509v3 Basic Constraints: critical
                CA:FALSE
            X509v3 CRL Distribution Points: 

                Full Name:
                  URI:http://nt-qwac.nowina.solutions/res/caqctsp/sub-ca_tc.crl

            X509v3 Key Usage: critical
                Digital Signature
            X509v3 Subject Key Identifier: 
                E0:A1:7E:1A:E9:11:49:67:96:0F:A8:E9:08:D1:B2:17:D3:F9:90:FF
            qcStatements: 
                0/0......F..0......F..0......F...0......F..0...TC
    Signature Algorithm: sha256WithRSAEncryption
         93:a0:98:29:3f:c0:da:bd:14:e2:a4:b8:1a:1f:95:9a:80:c6:
         c5:2f:b5:9a:f0:8a:7a:92:c8:70:a5:d2:04:06:e4:69:19:6c:
         bd:a9:ec:cb:15:ba:2a:d5:d4:6b:c1:37:30:09:9d:3a:99:62:
         4e:88:19:67:c6:73:c0:6d:b8:82:3d:ff:f9:82:bd:55:82:8f:
         14:f8:4d:c8:3b:72:f2:7f:b3:1d:86:c1:7a:de:ae:a1:ee:5c:
         ab:14:9d:57:13:49:e0:bc:e2:2f:95:7f:1e:0d:2e:95:b6:78:
         e3:d6:5d:bd:6e:01:46:18:28:8b:a2:d0:dc:e3:b1:d4:bc:94:
         60:c4:07:8f:3b:74:ae:fc:b1:42:e4:80:78:98:8f:f0:f5:23:
         6d:4c:39:c0:b2:52:aa:f2:0d:fc:84:2b:15:f9:39:12:be:f0:
         49:de:f3:b7:50:b9:b6:0f:8a:e1:ab:e4:2d:ac:95:61:db:35:
         f2:0a:d2:f2:bb:d5:9c:2b:63:fc:36:44:d8:7a:80:57:64:25:
         8a:33:78:a2:71:b9:f9:02:ba:22:85:5c:21:a1:2d:b8:3d:9f:
         9c:40:a0:d6:ac:93:0a:19:28:d2:b9:0b:f0:a5:ee:db:16:e5:
         a3:c0:b8:8d:21:de:20:63:53:81:a8:b4:ec:34:41:17:d0:44:
         1f:1f:c8:db:e0:a5:f3:6e:b5:31:42:64:5f:0c:18:75:5a:41:
         7c:7e:63:7a:23:fa:ff:53:99:4a:f0:60:76:f9:93:c0:74:a9:
         bf:bf:cc:64:b5:a4:a1:5f:8b:a4:f4:22:03:26:12:ce:04:e7:
         9e:47:2e:94:e7:7e:2e:41:d3:56:7e:39:be:6a:76:87:ca:90:
         01:91:48:d1:08:bb:80:2c:ae:1a:39:69:a1:37:91:1b:bc:43:
         3f:eb:d7:ea:9a:83:8a:91:df:d9:22:e5:6a:b2:84:42:50:df:
         9e:84:1c:5e:ae:cd:94:d2:a0:f4:d3:62:72:db:80:b9:38:cf:
         8c:09:0b:46:3b:23:45:89:32:4e:44:d1:65:31:3a:66:dc:e6:
         7c:45:49:cf:52:e3:cf:21:09:dd:12:fd:f4:45:15:67:d1:51:
         e7:77:a8:f2:d3:0e:e8:36:c5:91:ed:7d:31:99:c5:d7:2e:bf:
         c6:48:c6:56:cd:3a:33:ca:d8:cb:ba:18:d0:0d:eb:f6:8a:59:
         35:0d:ab:3f:48:4e:33:10:9f:46:ec:ad:d9:54:3c:39:7b:34:
         85:e9:22:3f:1a:23:e7:11:67:d6:99:60:ff:8f:26:a7:67:9b:
         13:92:3c:20:dc:42:85:74:70:e4:da:76:86:ad:6d:89:ef:cb:
         40:fb:1f:5a:17:e9:b0:cd
-----BEGIN CERTIFICATE-----
MIIFjjCCA3agAwIBAgIQA5qkzbGbFCGFv492Kl9/RjANBgkqhkiG9w0BAQsFADBc
MQswCQYDVQQGEwJUQzEjMCEGA1UECgwaVGhpcmQgQ291bnRyeSBRVFNQIENvbXBh
bnkxKDAmBgNVBAMMH1RDIGVUcnVzdCBRQyBmb3IgZVNpZ25hdHVyZXMgQ0EwHhcN
MjAwNjAzMTYyMzMxWhcNMjUwNjAyMTYyMzMxWjBiMQswCQYDVQQGEwJUQzERMA8G
A1UECAwITWlkbGFuZHMxGjAYBgNVBAoMEVRlc3Qgb3JnYW5pemF0aW9uMREwDwYD
VQQLDAhURVNUIFBLSTERMA8GA1UEAwwISm9obiBEb2UwggEiMA0GCSqGSIb3DQEB
AQUAA4IBDwAwggEKAoIBAQD1Ec0QsE3JKKKij6QJc+ReW/QQXXTbWDQSoJ36qx4S
sMJ7FwlhESCB+xggiBhHXtBp/ANlsmMFWQzflcqROGissLsCW3G9SvM4lqiFd7jy
tXz0pEFwct3y52yIPugI4vFCO8aOM76S9LCbdrZCieiTHk/t1+InBkw0FUJT3ArQ
LfrWBbEv1I/g56kRuHIyYT31WpyHuVfdjdsURmG/ZQKnHWWJI6WUJABOnFMR5yRC
YL0TsuIB5Gqvz0PMujgpouSyoW4g5VerDb4e94EMMfQM6iwFE9ZBWH4eP9Zhbx14
llVPYUpKI3fAY2ejq4F26A9GaWrHo0UvdRxeoU+Jm/KxAgMBAAGjggFEMIIBQDBV
BggrBgEFBQcBAQRJMEcwRQYIKwYBBQUHMAKGOWh0dHA6Ly9udC1xd2FjLm5vd2lu
YS5zb2x1dGlvbnMvcmVzL2NhcWN0c3Avc3ViLWNhX3RjLmNydDAfBgNVHSMEGDAW
gBQS0DCUKutzyd6dUR92BgZBhtnm7DAMBgNVHRMBAf8EAjAAMEoGA1UdHwRDMEEw
P6A9oDuGOWh0dHA6Ly9udC1xd2FjLm5vd2luYS5zb2x1dGlvbnMvcmVzL2NhcWN0
c3Avc3ViLWNhX3RjLmNybDAOBgNVHQ8BAf8EBAMCB4AwHQYDVR0OBBYEFOChfhrp
EUlnlg+o6QjRshfT+ZD/MD0GCCsGAQUFBwEDBDEwLzAIBgYEAI5GAQEwEwYGBACO
RgEGMAkGBwQAjkYBBgEwDgYGBACORgEHMAQTAlRDMA0GCSqGSIb3DQEBCwUAA4IC
AQCToJgpP8DavRTipLgaH5WagMbFL7Wa8Ip6kshwpdIEBuRpGWy9qezLFboq1dRr
wTcwCZ06mWJOiBlnxnPAbbiCPf/5gr1Vgo8U+E3IO3Lyf7MdhsF63q6h7lyrFJ1X
E0ngvOIvlX8eDS6Vtnjj1l29bgFGGCiLotDc47HUvJRgxAePO3Su/LFC5IB4mI/w
9SNtTDnAslKq8g38hCsV+TkSvvBJ3vO3ULm2D4rhq+QtrJVh2zXyCtLyu9WcK2P8
NkTYeoBXZCWKM3iicbn5AroihVwhoS24PZ+cQKDWrJMKGSjSuQvwpe7bFuWjwLiN
Id4gY1OBqLTsNEEX0EQfH8jb4KXzbrUxQmRfDBh1WkF8fmN6I/r/U5lK8GB2+ZPA
dKm/v8xktaShX4uk9CIDJhLOBOeeRy6U534uQdNWfjm+anaHypABkUjRCLuALK4a
OWmhN5EbvEM/69fqmoOKkd/ZIuVqsoRCUN+ehBxers2U0qD002Jy24C5OM+MCQtG
OyNFiTJORNFlMTpm3OZ8RUnPUuPPIQndEv30RRVn0VHnd6jy0w7oNsWR7X0xmcXX
Lr/GSMZWzTozytjLuhjQDev2ilk1Das/SE4zEJ9G7K3ZVDw5ezSF6SI/GiPnEWfW
mWD/jyanZ5sTkjwg3EKFdHDk2naGrW2J78tA+x9aF+mwzQ==
-----END CERTIFICATE-----
